target datalayout = "e-m:e-p270:32:32-p271:32:32-p272:64:64-i64:64-i128:128-f80:128-n8:16:32:64-S128"
target triple = "x86_64-unknown-linux-gnu"

%struct.UText = type { i32, i32, i32, i32, i64, i32, i32, i64, i32, i32, ptr, ptr, ptr, ptr, ptr, ptr, ptr, ptr, i64, i32, i32, i64, i32, i32 }
%struct.UTextFuncs = type { i32, i32, i32, i32, ptr, ptr, ptr, ptr, ptr, ptr, ptr, ptr, ptr, ptr, ptr, ptr }

; Function Attrs: mustprogress uwtable
define i64 @utext_nativeLength_75(ptr noundef %ut) #0 {
entry:
  %ut.addr = alloca ptr, align 8
  store ptr %ut, ptr %ut.addr, align 8
  %0 = load ptr, ptr %ut.addr, align 8
  %pFuncs = getelementptr inbounds %struct.UText, ptr %0, i32 0, i32 11
  %1 = load ptr, ptr %pFuncs, align 8
  %nativeLength = getelementptr inbounds %struct.UTextFuncs, ptr %1, i32 0, i32 5
  %2 = load ptr, ptr %nativeLength, align 8
  %3 = load ptr, ptr %ut.addr, align 8
  %call = call noundef i64 %2(ptr noundef %3)
  ret i64 %call
}

; Function Attrs: mustprogress nounwind uwtable
define internal noundef signext i8 @_ZL9U_SUCCESS10UErrorCode(i32 noundef %code) #1 {
entry:
  %code.addr = alloca i32, align 4
  store i32 %code, ptr %code.addr, align 4
  %0 = load i32, ptr %code.addr, align 4
  %cmp = icmp sle i32 %0, 0
  %conv = zext i1 %cmp to i8
  ret i8 %conv
}

; Function Attrs: mustprogress uwtable
define internal noundef ptr @_ZL14ucstrTextCloneP5UTextPKS_aP10UErrorCode(ptr noundef %dest, ptr noundef %src, i8 noundef signext %deep, ptr noundef %status) #0 {
entry:
  %dest.addr = alloca ptr, align 8
  %src.addr = alloca ptr, align 8
  %deep.addr = alloca i8, align 1
  %status.addr = alloca ptr, align 8
  %len = alloca i32, align 4
  %srcStr = alloca ptr, align 8
  %copyStr = alloca ptr, align 8
  %i = alloca i64, align 8
  store ptr %dest, ptr %dest.addr, align 8
  store ptr %src, ptr %src.addr, align 8
  store i8 %deep, ptr %deep.addr, align 1
  store ptr %status, ptr %status.addr, align 8
  %0 = load ptr, ptr %dest.addr, align 8
  %1 = load ptr, ptr %src.addr, align 8
  %2 = load ptr, ptr %status.addr, align 8
  %call = call noundef ptr @_ZL16shallowTextCloneP5UTextPKS_P10UErrorCode(ptr noundef %0, ptr noundef %1, ptr noundef %2)
  store ptr %call, ptr %dest.addr, align 8
  %3 = load i8, ptr %deep.addr, align 1
  %tobool = icmp ne i8 %3, 0
  br i1 %tobool, label %land.lhs.true, label %if.end12

land.lhs.true:                                    ; preds = %entry
  %4 = load ptr, ptr %status.addr, align 8
  %5 = load i32, ptr %4, align 4
  %call1 = call noundef signext i8 @_ZL9U_SUCCESS10UErrorCode(i32 noundef %5)
  %tobool2 = icmp ne i8 %call1, 0
  br i1 %tobool2, label %if.then, label %if.end12

if.then:                                          ; preds = %land.lhs.true
  %6 = load ptr, ptr %dest.addr, align 8
  %call3 = call i64 @utext_nativeLength_75(ptr noundef %6)
  %conv = trunc i64 %call3 to i32
  store i32 %conv, ptr %len, align 4
  %7 = load ptr, ptr %src.addr, align 8
  %context = getelementptr inbounds %struct.UText, ptr %7, i32 0, i32 13
  %8 = load ptr, ptr %context, align 8
  store ptr %8, ptr %srcStr, align 8
  %9 = load i32, ptr %len, align 4
  %add = add nsw i32 %9, 1
  %conv4 = sext i32 %add to i64
  %mul = mul i64 %conv4, 2
  %call5 = call noalias ptr @uprv_malloc_75(i64 noundef %mul) #7
  store ptr %call5, ptr %copyStr, align 8
  %10 = load ptr, ptr %copyStr, align 8
  %cmp = icmp eq ptr %10, null
  br i1 %cmp, label %if.then6, label %if.else

if.then6:                                         ; preds = %if.then
  %11 = load ptr, ptr %status.addr, align 8
  store i32 7, ptr %11, align 4
  br label %if.end

if.else:                                          ; preds = %if.then
  store i64 0, ptr %i, align 8
  br label %for.cond

for.cond:                                         ; preds = %for.inc, %if.else
  %12 = load i64, ptr %i, align 8
  %13 = load i32, ptr %len, align 4
  %conv7 = sext i32 %13 to i64
  %cmp8 = icmp slt i64 %12, %conv7
  br i1 %cmp8, label %for.body, label %for.end

for.body:                                         ; preds = %for.cond
  %14 = load ptr, ptr %srcStr, align 8
  %15 = load i64, ptr %i, align 8
  %arrayidx = getelementptr inbounds i16, ptr %14, i64 %15
  %16 = load i16, ptr %arrayidx, align 2
  %17 = load ptr, ptr %copyStr, align 8
  %18 = load i64, ptr %i, align 8
  %arrayidx9 = getelementptr inbounds i16, ptr %17, i64 %18
  store i16 %16, ptr %arrayidx9, align 2
  br label %for.inc

for.inc:                                          ; preds = %for.body
  %19 = load i64, ptr %i, align 8
  %inc = add nsw i64 %19, 1
  store i64 %inc, ptr %i, align 8
  br label %for.cond, !llvm.loop !20

for.end:                                          ; preds = %for.cond
  %20 = load ptr, ptr %copyStr, align 8
  %21 = load i32, ptr %len, align 4
  %idxprom = sext i32 %21 to i64
  %arrayidx10 = getelementptr inbounds i16, ptr %20, i64 %idxprom
  store i16 0, ptr %arrayidx10, align 2
  %22 = load ptr, ptr %copyStr, align 8
  %23 = load ptr, ptr %dest.addr, align 8
  %context11 = getelementptr inbounds %struct.UText, ptr %23, i32 0, i32 13
  store ptr %22, ptr %context11, align 8
  %24 = load ptr, ptr %dest.addr, align 8
  %providerProperties = getelementptr inbounds %struct.UText, ptr %24, i32 0, i32 2
  %25 = load i32, ptr %providerProperties, align 8
  %or = or i32 %25, 32
  store i32 %or, ptr %providerProperties, align 8
  br label %if.end

if.end:                                           ; preds = %for.end, %if.then6
  br label %if.end12

if.end12:                                         ; preds = %if.end, %land.lhs.true, %entry
  %26 = load ptr, ptr %dest.addr, align 8
  ret ptr %26
}