; Function Attrs: mustprogress uwtable
define internal noundef ptr @_ZL14ucstrTextCloneP5UTextPKS_aP10UErrorCode(ptr noundef %dest, ptr noundef %src, i8 noundef signext %deep, ptr nocapture noundef %status) #0 {
entry:
  %call = tail call fastcc noundef ptr @_ZL16shallowTextCloneP5UTextPKS_P10UErrorCode(ptr noundef %dest, ptr noundef %src, ptr noundef %status)
  %tobool.not = icmp eq i8 %deep, 0
  br i1 %tobool.not, label %if.end12, label %land.lhs.true

land.lhs.true:                                    ; preds = %entry
  %0 = load i32, ptr %status, align 4
  %cmp.i = icmp sgt i32 %0, 0
  br i1 %cmp.i, label %if.end12, label %if.then

if.then:                                          ; preds = %land.lhs.true
  %pFuncs.i = getelementptr inbounds i8, ptr %call, i64 56
  %1 = load ptr, ptr %pFuncs.i, align 8
  %nativeLength.i = getelementptr inbounds i8, ptr %1, i64 24
  %2 = load ptr, ptr %nativeLength.i, align 8
  %call.i = tail call noundef i64 %2(ptr noundef %call)
  %context = getelementptr inbounds i8, ptr %src, i64 72
  %3 = load ptr, ptr %context, align 8
  %add = shl i64 %call.i, 32
  %sext = add i64 %add, 4294967296
  %mul = ashr exact i64 %sext, 31
  %call5 = tail call noalias ptr @uprv_malloc_75(i64 noundef %mul) #13
  %cmp = icmp eq ptr %call5, null
  br i1 %cmp, label %if.then6, label %for.cond.preheader

for.cond.preheader:                               ; preds = %if.then
  %conv7 = ashr exact i64 %add, 32
  %cmp817 = icmp sgt i64 %conv7, 0
  br i1 %cmp817, label %for.body, label %for.end

if.then6:                                         ; preds = %if.then
  store i32 7, ptr %status, align 4
  br label %if.end12

for.body:                                         ; preds = %for.cond.preheader, %for.body
  %i.018 = phi i64 [ %inc, %for.body ], [ 0, %for.cond.preheader ]
  %arrayidx = getelementptr inbounds i16, ptr %3, i64 %i.018
  %4 = load i16, ptr %arrayidx, align 2
  %arrayidx9 = getelementptr inbounds i16, ptr %call5, i64 %i.018
  store i16 %4, ptr %arrayidx9, align 2
  %inc = add nuw nsw i64 %i.018, 1
  %exitcond.not = icmp eq i64 %inc, %conv7
  br i1 %exitcond.not, label %for.end, label %for.body, !llvm.loop !19

for.end:                                          ; preds = %for.body, %for.cond.preheader
  %arrayidx10 = getelementptr inbounds i16, ptr %call5, i64 %conv7
  store i16 0, ptr %arrayidx10, align 2
  %context11 = getelementptr inbounds i8, ptr %call, i64 72
  store ptr %call5, ptr %context11, align 8
  %providerProperties = getelementptr inbounds i8, ptr %call, i64 8
  %5 = load i32, ptr %providerProperties, align 8
  %or = or i32 %5, 32
  store i32 %or, ptr %providerProperties, align 8
  br label %if.end12

if.end12:                                         ; preds = %if.then6, %for.end, %land.lhs.true, %entry
  ret ptr %call
}